target datalayout = "e-m:e-p270:32:32-p271:32:32-p272:64:64-i64:64-i128:128-f80:128-n8:16:32:64-S128"
target triple = "x86_64-pc-linux-gnu"

%"class.llvm::SmallVectorBase" = type { ptr, i32, i32 }
%"class.llvm::SmallPtrSetImplBase.base" = type <{ ptr, ptr, i32, i32, i32 }>
%"class.std::_Function_base" = type { %"union.std::_Any_data", ptr }
%"union.std::_Any_data" = type { %"union.std::_Nocopy_types" }
%"union.std::_Nocopy_types" = type { { i64, i64 } }
%"class.llvm::ilist_iterator_w_bits" = type <{ ptr, i8, i8, [6 x i8] }>
%"class.llvm::Twine" = type <{ %"union.llvm::Twine::Child", %"union.llvm::Twine::Child", i8, i8, [6 x i8] }>
%"union.llvm::Twine::Child" = type { %struct.anon }
%struct.anon = type { ptr, i64 }
%"class.llvm::SCEVExpander" = type { ptr, ptr, ptr, i8, [7 x i8], %"class.llvm::DenseMap", %"class.llvm::DenseSet", %"class.llvm::DenseSet", %"class.llvm::SmallPtrSet.3", %"class.llvm::DenseMap.6", %"class.llvm::SmallVector.9", %"class.llvm::DenseMap.14", %"class.llvm::SmallPtrSet.17", ptr, ptr, %"class.llvm::DenseSet.20", i8, i8, %"class.llvm::IRBuilder", %"class.llvm::SmallVector.33", ptr }
%"class.llvm::DenseMap" = type <{ ptr, i32, i32, i32, [4 x i8] }>
%"class.llvm::DenseSet" = type { %"class.llvm::detail::DenseSetImpl" }
%"class.llvm::detail::DenseSetImpl" = type { %"class.llvm::DenseMap.0" }
%"class.llvm::DenseMap.0" = type <{ ptr, i32, i32, i32, [4 x i8] }>
%"class.llvm::SmallPtrSet.3" = type { %"class.llvm::SmallPtrSetImpl.base.5", [16 x ptr] }
%"class.llvm::SmallPtrSetImpl.base.5" = type { %"class.llvm::SmallPtrSetImplBase.base" }
%"class.llvm::DenseMap.6" = type <{ ptr, i32, i32, i32, [4 x i8] }>
%"class.llvm::SmallVector.9" = type { %"class.llvm::SmallVectorImpl.10", %"struct.llvm::SmallVectorStorage.13" }
%"class.llvm::SmallVectorImpl.10" = type { %"class.llvm::SmallVectorTemplateBase.11" }
%"class.llvm::SmallVectorTemplateBase.11" = type { %"class.llvm::SmallVectorTemplateCommon.12" }
%"class.llvm::SmallVectorTemplateCommon.12" = type { %"class.llvm::SmallVectorBase" }
%"struct.llvm::SmallVectorStorage.13" = type { [48 x i8] }
%"class.llvm::DenseMap.14" = type <{ ptr, i32, i32, i32, [4 x i8] }>
%"class.llvm::SmallPtrSet.17" = type { %"class.llvm::SmallPtrSetImpl.base.19", [2 x ptr] }
%"class.llvm::SmallPtrSetImpl.base.19" = type { %"class.llvm::SmallPtrSetImplBase.base" }
%"class.llvm::DenseSet.20" = type { %"class.llvm::detail::DenseSetImpl.21" }
%"class.llvm::detail::DenseSetImpl.21" = type { %"class.llvm::DenseMap.22" }
%"class.llvm::DenseMap.22" = type <{ ptr, i32, i32, i32, [4 x i8] }>
%"class.llvm::IRBuilder" = type { %"class.llvm::IRBuilderBase", %"class.llvm::InstSimplifyFolder", %"class.llvm::IRBuilderCallbackInserter" }
%"class.llvm::IRBuilderBase" = type { %"class.llvm::SmallVector.25", ptr, %"class.llvm::ilist_iterator_w_bits", ptr, ptr, ptr, ptr, %"class.llvm::FastMathFlags", i8, i8, i8, %"class.llvm::ArrayRef" }
%"class.llvm::SmallVector.25" = type { %"class.llvm::SmallVectorImpl.26", %"struct.llvm::SmallVectorStorage.29" }
%"class.llvm::SmallVectorImpl.26" = type { %"class.llvm::SmallVectorTemplateBase.27" }
%"class.llvm::SmallVectorTemplateBase.27" = type { %"class.llvm::SmallVectorTemplateCommon.28" }
%"class.llvm::SmallVectorTemplateCommon.28" = type { %"class.llvm::SmallVectorBase" }
%"struct.llvm::SmallVectorStorage.29" = type { [32 x i8] }
%"class.llvm::FastMathFlags" = type { i32 }
%"class.llvm::ArrayRef" = type { ptr, i64 }
%"class.llvm::InstSimplifyFolder" = type { %"class.llvm::IRBuilderFolder", %"class.llvm::TargetFolder", %"struct.llvm::SimplifyQuery" }
%"class.llvm::IRBuilderFolder" = type { ptr }
%"class.llvm::TargetFolder" = type { %"class.llvm::IRBuilderFolder", ptr }
%"struct.llvm::SimplifyQuery" = type <{ ptr, ptr, ptr, ptr, ptr, ptr, ptr, %"struct.llvm::InstrInfoQuery", i8, [6 x i8] }>
%"struct.llvm::InstrInfoQuery" = type { i8 }
%"class.llvm::IRBuilderCallbackInserter" = type { %"class.llvm::IRBuilderDefaultInserter", %"class.std::function.30" }
%"class.llvm::IRBuilderDefaultInserter" = type { ptr }
%"class.std::function.30" = type { %"class.std::_Function_base", ptr }
%"class.llvm::SmallVector.33" = type { %"class.llvm::SmallVectorImpl.34", %"struct.llvm::SmallVectorStorage.37" }
%"class.llvm::SmallVectorImpl.34" = type { %"class.llvm::SmallVectorTemplateBase.35" }
%"class.llvm::SmallVectorTemplateBase.35" = type { %"class.llvm::SmallVectorTemplateCommon.36" }
%"class.llvm::SmallVectorTemplateCommon.36" = type { %"class.llvm::SmallVectorBase" }
%"struct.llvm::SmallVectorStorage.37" = type { [64 x i8] }
%"class.llvm::FoldingSetBase::Node" = type { ptr }
%"class.llvm::FoldingSetNodeIDRef" = type { ptr, i64 }
%"class.llvm::SCEV.base" = type <{ %"class.llvm::FoldingSetBase::Node", %"class.llvm::FoldingSetNodeIDRef", i16, i16, i16 }>
%"class.llvm::SCEVVScale" = type { %"class.llvm::SCEV.base", ptr }

@.str.3 = private unnamed_addr constant [1 x i8] zeroinitializer, align 1

; Function Attrs: mustprogress nounwind uwtable
define linkonce_odr hidden void @_ZN4llvm5TwineC2EPKc(ptr noundef nonnull align 8 dereferenceable(34) %0, ptr noundef %1) unnamed_addr #1 comdat align 2 {
  %3 = alloca ptr, align 8
  %4 = alloca ptr, align 8
  store ptr %0, ptr %3, align 8
  store ptr %1, ptr %4, align 8
  %5 = load ptr, ptr %3, align 8
  %6 = getelementptr inbounds nuw %"class.llvm::Twine", ptr %5, i32 0, i32 2
  store i8 1, ptr %6, align 8
  %7 = getelementptr inbounds nuw %"class.llvm::Twine", ptr %5, i32 0, i32 3
  store i8 1, ptr %7, align 1
  %8 = load ptr, ptr %4, align 8
  %9 = getelementptr inbounds i8, ptr %8, i64 0
  %10 = load i8, ptr %9, align 1
  %11 = sext i8 %10 to i32
  %12 = icmp ne i32 %11, 0
  br i1 %12, label %13, label %17

13:                                               ; preds = %2
  %14 = load ptr, ptr %4, align 8
  %15 = getelementptr inbounds nuw %"class.llvm::Twine", ptr %5, i32 0, i32 0
  store ptr %14, ptr %15, align 8
  %16 = getelementptr inbounds nuw %"class.llvm::Twine", ptr %5, i32 0, i32 2
  store i8 3, ptr %16, align 8
  br label %19

17:                                               ; preds = %2
  %18 = getelementptr inbounds nuw %"class.llvm::Twine", ptr %5, i32 0, i32 2
  store i8 1, ptr %18, align 8
  br label %19

19:                                               ; preds = %17, %13
  ret void
}

; Function Attrs: mustprogress nounwind uwtable
define linkonce_odr hidden noundef ptr @_ZNK4llvm10SCEVVScale7getTypeEv(ptr noundef nonnull align 8 dereferenceable(40) %0) #1 comdat align 2 {
  %2 = alloca ptr, align 8
  store ptr %0, ptr %2, align 8
  %3 = load ptr, ptr %2, align 8
  %4 = getelementptr inbounds nuw %"class.llvm::SCEVVScale", ptr %3, i32 0, i32 1
  %5 = load ptr, ptr %4, align 8
  ret ptr %5
}

; Function Attrs: mustprogress nounwind uwtable
define dso_local noundef ptr @_ZN4llvm12SCEVExpander11visitVScaleEPKNS_10SCEVVScaleE(ptr noundef nonnull align 8 dereferenceable(816) %0, ptr noundef %1) #1 align 2 {
  %3 = alloca ptr, align 8
  %4 = alloca ptr, align 8
  %5 = alloca %"class.llvm::Twine", align 8
  store ptr %0, ptr %3, align 8
  store ptr %1, ptr %4, align 8
  %6 = load ptr, ptr %3, align 8
  %7 = getelementptr inbounds nuw %"class.llvm::SCEVExpander", ptr %6, i32 0, i32 18
  %8 = load ptr, ptr %4, align 8
  %9 = call noundef ptr @_ZNK4llvm10SCEVVScale7getTypeEv(ptr noundef nonnull align 8 dereferenceable(40) %8)
  %10 = call noundef ptr @_ZN4llvm11ConstantInt3getEPNS_4TypeEmb(ptr noundef %9, i64 noundef 1, i1 noundef zeroext false)
  call void @_ZN4llvm5TwineC2EPKc(ptr noundef nonnull align 8 dereferenceable(34) %5, ptr noundef @.str.3)
  %11 = call noundef ptr @_ZN4llvm13IRBuilderBase12CreateVScaleEPNS_8ConstantERKNS_5TwineE(ptr noundef nonnull align 8 dereferenceable(128) %7, ptr noundef %10, ptr noundef nonnull align 8 dereferenceable(34) %5)
  ret ptr %11
}