; Function Attrs: mustprogress nounwind uwtable
define dso_local noundef ptr @_ZN4llvm12SCEVExpander11visitVScaleEPKNS_10SCEVVScaleE(ptr noundef nonnull align 8 dereferenceable(816) %0, ptr noundef readonly captures(none) %1) local_unnamed_addr #0 align 2 {
  %3 = alloca %"class.llvm::Twine", align 8
  %4 = getelementptr inbounds nuw i8, ptr %0, i64 472
  %5 = getelementptr inbounds nuw i8, ptr %1, i64 32
  %6 = load ptr, ptr %5, align 8
  %7 = tail call noundef ptr @_ZN4llvm11ConstantInt3getEPNS_4TypeEmb(ptr noundef %6, i64 noundef 1, i1 noundef zeroext false) #18
  %8 = getelementptr inbounds nuw i8, ptr %3, i64 32
  store i16 257, ptr %8, align 8
  %9 = call noundef ptr @_ZN4llvm13IRBuilderBase12CreateVScaleEPNS_8ConstantERKNS_5TwineE(ptr noundef nonnull align 8 dereferenceable(128) %4, ptr noundef %7, ptr noundef nonnull align 8 dereferenceable(34) %3) #18
  ret ptr %9
}